#include <math.h>
#include <stdio.h>
#include <stdlib.h>
#include <string.h>

int main(int argc, char* argv[])
{
	int n,a[100],t,i;
	scanf("%d",&n);
  	for(i=0;i<=n-1;i++)
		scanf("%d",&a[i]);
	for(i=0;i<=(n-1)/2;i++)
	{t=a[i];a[i]=a[n-i-1];a[n-i-1]=t;}
    for(i=0;i<=n-1;i++) 
	{if(i!=n-1) printf("%d ",a[i]);
	else printf("%d",a[i]);
	}
	return 0;
}