; ModuleID = '47/4237.c'
source_filename = "47/4237.c"
target datalayout = "e-m:e-p270:32:32-p271:32:32-p272:64:64-i64:64-f80:128-n8:16:32:64-S128"
target triple = "x86_64-pc-linux-gnu"

@.str = private unnamed_addr constant [3 x i8] c"%d\00", align 1
@.str.1 = private unnamed_addr constant [4 x i8] c"%d \00", align 1

; Function Attrs: noinline nounwind uwtable
define dso_local i32 @main(i32 %0, i8** %1) #0 {
  %3 = alloca i32, align 4
  %4 = alloca i32, align 4
  %5 = alloca i8**, align 8
  %6 = alloca i32, align 4
  %7 = alloca [100 x i32], align 16
  %8 = alloca i32, align 4
  %9 = alloca i32, align 4
  store i32 0, i32* %3, align 4
  store i32 %0, i32* %4, align 4
  store i8** %1, i8*** %5, align 8
  %10 = call i32 (i8*, ...) @__isoc99_scanf(i8* getelementptr inbounds ([3 x i8], [3 x i8]* @.str, i64 0, i64 0), i32* %6)
  store i32 0, i32* %9, align 4
  br label %11

11:                                               ; preds = %21, %2
  %12 = load i32, i32* %9, align 4
  %13 = load i32, i32* %6, align 4
  %14 = sub nsw i32 %13, 1
  %15 = icmp sle i32 %12, %14
  br i1 %15, label %16, label %24

16:                                               ; preds = %11
  %17 = load i32, i32* %9, align 4
  %18 = sext i32 %17 to i64
  %19 = getelementptr inbounds [100 x i32], [100 x i32]* %7, i64 0, i64 %18
  %20 = call i32 (i8*, ...) @__isoc99_scanf(i8* getelementptr inbounds ([3 x i8], [3 x i8]* @.str, i64 0, i64 0), i32* %19)
  br label %21

21:                                               ; preds = %16
  %22 = load i32, i32* %9, align 4
  %23 = add nsw i32 %22, 1
  store i32 %23, i32* %9, align 4
  br label %11

24:                                               ; preds = %11
  store i32 0, i32* %9, align 4
  br label %25

25:                                               ; preds = %53, %24
  %26 = load i32, i32* %9, align 4
  %27 = load i32, i32* %6, align 4
  %28 = sub nsw i32 %27, 1
  %29 = sdiv i32 %28, 2
  %30 = icmp sle i32 %26, %29
  br i1 %30, label %31, label %56

31:                                               ; preds = %25
  %32 = load i32, i32* %9, align 4
  %33 = sext i32 %32 to i64
  %34 = getelementptr inbounds [100 x i32], [100 x i32]* %7, i64 0, i64 %33
  %35 = load i32, i32* %34, align 4
  store i32 %35, i32* %8, align 4
  %36 = load i32, i32* %6, align 4
  %37 = load i32, i32* %9, align 4
  %38 = sub nsw i32 %36, %37
  %39 = sub nsw i32 %38, 1
  %40 = sext i32 %39 to i64
  %41 = getelementptr inbounds [100 x i32], [100 x i32]* %7, i64 0, i64 %40
  %42 = load i32, i32* %41, align 4
  %43 = load i32, i32* %9, align 4
  %44 = sext i32 %43 to i64
  %45 = getelementptr inbounds [100 x i32], [100 x i32]* %7, i64 0, i64 %44
  store i32 %42, i32* %45, align 4
  %46 = load i32, i32* %8, align 4
  %47 = load i32, i32* %6, align 4
  %48 = load i32, i32* %9, align 4
  %49 = sub nsw i32 %47, %48
  %50 = sub nsw i32 %49, 1
  %51 = sext i32 %50 to i64
  %52 = getelementptr inbounds [100 x i32], [100 x i32]* %7, i64 0, i64 %51
  store i32 %46, i32* %52, align 4
  br label %53

53:                                               ; preds = %31
  %54 = load i32, i32* %9, align 4
  %55 = add nsw i32 %54, 1
  store i32 %55, i32* %9, align 4
  br label %25

56:                                               ; preds = %25
  store i32 0, i32* %9, align 4
  br label %57

57:                                               ; preds = %80, %56
  %58 = load i32, i32* %9, align 4
  %59 = load i32, i32* %6, align 4
  %60 = sub nsw i32 %59, 1
  %61 = icmp sle i32 %58, %60
  br i1 %61, label %62, label %83

62:                                               ; preds = %57
  %63 = load i32, i32* %9, align 4
  %64 = load i32, i32* %6, align 4
  %65 = sub nsw i32 %64, 1
  %66 = icmp ne i32 %63, %65
  br i1 %66, label %67, label %73

67:                                               ; preds = %62
  %68 = load i32, i32* %9, align 4
  %69 = sext i32 %68 to i64
  %70 = getelementptr inbounds [100 x i32], [100 x i32]* %7, i64 0, i64 %69
  %71 = load i32, i32* %70, align 4
  %72 = call i32 (i8*, ...) @printf(i8* getelementptr inbounds ([4 x i8], [4 x i8]* @.str.1, i64 0, i64 0), i32 %71)
  br label %79

73:                                               ; preds = %62
  %74 = load i32, i32* %9, align 4
  %75 = sext i32 %74 to i64
  %76 = getelementptr inbounds [100 x i32], [100 x i32]* %7, i64 0, i64 %75
  %77 = load i32, i32* %76, align 4
  %78 = call i32 (i8*, ...) @printf(i8* getelementptr inbounds ([3 x i8], [3 x i8]* @.str, i64 0, i64 0), i32 %77)
  br label %79

79:                                               ; preds = %73, %67
  br label %80

80:                                               ; preds = %79
  %81 = load i32, i32* %9, align 4
  %82 = add nsw i32 %81, 1
  store i32 %82, i32* %9, align 4
  br label %57

83:                                               ; preds = %57
  ret i32 0
}

declare dso_local i32 @__isoc99_scanf(i8*, ...) #1

declare dso_local i32 @printf(i8*, ...) #1


!llvm.module.flags = !{!0}
!llvm.ident = !{!1}

!0 = !{i32 1, !"wchar_size", i32 4}
!1 = !{!"clang version 10.0.0-4ubuntu1 "}
